; Function Attrs: mustprogress nounwind uwtable
define void @_ZN16CredentialsModelD2Ev(ptr noundef nonnull align 8 dereferenceable(40) %0) unnamed_addr #2 align 2 personality ptr @__gxx_personality_v0 {
  store ptr getelementptr inbounds ({ [51 x ptr] }, ptr @_ZTV16CredentialsModel, i64 0, i32 0, i64 2), ptr %0, align 8
  invoke void @_ZN16CredentialsModel5clearEv(ptr noundef nonnull align 8 dereferenceable(40) %0)
          to label %2 unwind label %8

2:                                                ; preds = %1
  %3 = getelementptr inbounds i8, ptr %0, i64 16
  %4 = load ptr, ptr %3, align 8
  %.not.i.i.i = icmp eq ptr %4, null
  br i1 %.not.i.i.i, label %_ZN5QListIP14tap_credentialED2Ev.exit, label %_ZN17QArrayDataPointerIP14tap_credentialE5derefEv.exit.i.i

_ZN17QArrayDataPointerIP14tap_credentialE5derefEv.exit.i.i: ; preds = %2
  %5 = atomicrmw sub ptr %4, i32 1 seq_cst, align 4
  %.not.i.i = icmp eq i32 %5, 1
  br i1 %.not.i.i, label %6, label %_ZN5QListIP14tap_credentialED2Ev.exit

6:                                                ; preds = %_ZN17QArrayDataPointerIP14tap_credentialE5derefEv.exit.i.i
  %7 = load ptr, ptr %3, align 8
  tail call void @_ZN10QArrayData10deallocateEPS_xx(ptr noundef %7, i64 noundef 8, i64 noundef 8) #16
  br label %_ZN5QListIP14tap_credentialED2Ev.exit

_ZN5QListIP14tap_credentialED2Ev.exit:            ; preds = %2, %_ZN17QArrayDataPointerIP14tap_credentialE5derefEv.exit.i.i, %6
  tail call void @_ZN18QAbstractListModelD2Ev(ptr noundef nonnull align 8 dereferenceable(16) %0) #16
  ret void

8:                                                ; preds = %1
  %9 = landingpad { ptr, i32 }
          catch ptr null
  %10 = extractvalue { ptr, i32 } %9, 0
  tail call void @__clang_call_terminate(ptr %10) #17
  unreachable
}